; ModuleID = '7/861.c'
source_filename = "7/861.c"
target datalayout = "e-m:e-p270:32:32-p271:32:32-p272:64:64-i64:64-f80:128-n8:16:32:64-S128"
target triple = "x86_64-pc-linux-gnu"

@.str = private unnamed_addr constant [7 x i8] c"%s%s%s\00", align 1
@.str.1 = private unnamed_addr constant [3 x i8] c"%s\00", align 1

; Function Attrs: noinline nounwind uwtable
define dso_local i32 @main() #0 {
  %1 = alloca i32, align 4
  %2 = alloca [256 x i8], align 16
  %3 = alloca [256 x i8], align 16
  %4 = alloca [256 x i8], align 16
  %5 = alloca [256 x i8], align 16
  %6 = alloca [256 x i8], align 16
  %7 = alloca i32, align 4
  %8 = alloca i32, align 4
  %9 = alloca i32, align 4
  %10 = alloca i32, align 4
  %11 = alloca i32, align 4
  %12 = alloca i32, align 4
  %13 = alloca i32, align 4
  store i32 0, i32* %1, align 4
  %14 = getelementptr inbounds [256 x i8], [256 x i8]* %2, i64 0, i64 0
  %15 = getelementptr inbounds [256 x i8], [256 x i8]* %3, i64 0, i64 0
  %16 = getelementptr inbounds [256 x i8], [256 x i8]* %4, i64 0, i64 0
  %17 = call i32 (i8*, ...) @__isoc99_scanf(i8* getelementptr inbounds ([7 x i8], [7 x i8]* @.str, i64 0, i64 0), i8* %14, i8* %15, i8* %16)
  %18 = getelementptr inbounds [256 x i8], [256 x i8]* %2, i64 0, i64 0
  %19 = call i64 @strlen(i8* %18) #3
  %20 = trunc i64 %19 to i32
  store i32 %20, i32* %9, align 4
  %21 = getelementptr inbounds [256 x i8], [256 x i8]* %3, i64 0, i64 0
  %22 = call i64 @strlen(i8* %21) #3
  %23 = trunc i64 %22 to i32
  store i32 %23, i32* %10, align 4
  store i32 0, i32* %7, align 4
  br label %24

24:                                               ; preds = %113, %0
  %25 = load i32, i32* %7, align 4
  %26 = load i32, i32* %9, align 4
  %27 = icmp slt i32 %25, %26
  br i1 %27, label %28, label %116

28:                                               ; preds = %24
  store i32 0, i32* %11, align 4
  %29 = load i32, i32* %7, align 4
  store i32 %29, i32* %8, align 4
  br label %30

30:                                               ; preds = %52, %28
  %31 = load i32, i32* %8, align 4
  %32 = load i32, i32* %7, align 4
  %33 = load i32, i32* %10, align 4
  %34 = add nsw i32 %32, %33
  %35 = icmp slt i32 %31, %34
  br i1 %35, label %36, label %55

36:                                               ; preds = %30
  %37 = load i32, i32* %8, align 4
  %38 = load i32, i32* %7, align 4
  %39 = sub nsw i32 %37, %38
  %40 = sext i32 %39 to i64
  %41 = getelementptr inbounds [256 x i8], [256 x i8]* %3, i64 0, i64 %40
  %42 = load i8, i8* %41, align 1
  %43 = sext i8 %42 to i32
  %44 = load i32, i32* %8, align 4
  %45 = sext i32 %44 to i64
  %46 = getelementptr inbounds [256 x i8], [256 x i8]* %2, i64 0, i64 %45
  %47 = load i8, i8* %46, align 1
  %48 = sext i8 %47 to i32
  %49 = icmp ne i32 %43, %48
  br i1 %49, label %50, label %51

50:                                               ; preds = %36
  store i32 1, i32* %11, align 4
  br label %51

51:                                               ; preds = %50, %36
  br label %52

52:                                               ; preds = %51
  %53 = load i32, i32* %8, align 4
  %54 = add nsw i32 %53, 1
  store i32 %54, i32* %8, align 4
  br label %30

55:                                               ; preds = %30
  %56 = load i32, i32* %11, align 4
  %57 = icmp eq i32 %56, 0
  br i1 %57, label %58, label %112

58:                                               ; preds = %55
  store i32 0, i32* %12, align 4
  br label %59

59:                                               ; preds = %71, %58
  %60 = load i32, i32* %12, align 4
  %61 = load i32, i32* %7, align 4
  %62 = icmp slt i32 %60, %61
  br i1 %62, label %63, label %74

63:                                               ; preds = %59
  %64 = load i32, i32* %12, align 4
  %65 = sext i32 %64 to i64
  %66 = getelementptr inbounds [256 x i8], [256 x i8]* %2, i64 0, i64 %65
  %67 = load i8, i8* %66, align 1
  %68 = load i32, i32* %12, align 4
  %69 = sext i32 %68 to i64
  %70 = getelementptr inbounds [256 x i8], [256 x i8]* %5, i64 0, i64 %69
  store i8 %67, i8* %70, align 1
  br label %71

71:                                               ; preds = %63
  %72 = load i32, i32* %12, align 4
  %73 = add nsw i32 %72, 1
  store i32 %73, i32* %12, align 4
  br label %59

74:                                               ; preds = %59
  %75 = load i32, i32* %12, align 4
  %76 = sext i32 %75 to i64
  %77 = getelementptr inbounds [256 x i8], [256 x i8]* %5, i64 0, i64 %76
  store i8 0, i8* %77, align 1
  %78 = load i32, i32* %7, align 4
  %79 = load i32, i32* %10, align 4
  %80 = add nsw i32 %78, %79
  store i32 %80, i32* %13, align 4
  br label %81

81:                                               ; preds = %97, %74
  %82 = load i32, i32* %13, align 4
  %83 = load i32, i32* %9, align 4
  %84 = icmp slt i32 %82, %83
  br i1 %84, label %85, label %100

85:                                               ; preds = %81
  %86 = load i32, i32* %13, align 4
  %87 = sext i32 %86 to i64
  %88 = getelementptr inbounds [256 x i8], [256 x i8]* %2, i64 0, i64 %87
  %89 = load i8, i8* %88, align 1
  %90 = load i32, i32* %13, align 4
  %91 = load i32, i32* %7, align 4
  %92 = sub nsw i32 %90, %91
  %93 = load i32, i32* %10, align 4
  %94 = sub nsw i32 %92, %93
  %95 = sext i32 %94 to i64
  %96 = getelementptr inbounds [256 x i8], [256 x i8]* %6, i64 0, i64 %95
  store i8 %89, i8* %96, align 1
  br label %97

97:                                               ; preds = %85
  %98 = load i32, i32* %13, align 4
  %99 = add nsw i32 %98, 1
  store i32 %99, i32* %13, align 4
  br label %81

100:                                              ; preds = %81
  %101 = load i32, i32* %13, align 4
  %102 = load i32, i32* %7, align 4
  %103 = sub nsw i32 %101, %102
  %104 = load i32, i32* %10, align 4
  %105 = sub nsw i32 %103, %104
  %106 = sext i32 %105 to i64
  %107 = getelementptr inbounds [256 x i8], [256 x i8]* %6, i64 0, i64 %106
  store i8 0, i8* %107, align 1
  %108 = getelementptr inbounds [256 x i8], [256 x i8]* %5, i64 0, i64 0
  %109 = getelementptr inbounds [256 x i8], [256 x i8]* %4, i64 0, i64 0
  %110 = getelementptr inbounds [256 x i8], [256 x i8]* %6, i64 0, i64 0
  %111 = call i32 (i8*, ...) @printf(i8* getelementptr inbounds ([7 x i8], [7 x i8]* @.str, i64 0, i64 0), i8* %108, i8* %109, i8* %110)
  br label %116

112:                                              ; preds = %55
  br label %113

113:                                              ; preds = %112
  %114 = load i32, i32* %7, align 4
  %115 = add nsw i32 %114, 1
  store i32 %115, i32* %7, align 4
  br label %24

116:                                              ; preds = %100, %24
  %117 = load i32, i32* %11, align 4
  %118 = icmp eq i32 %117, 1
  br i1 %118, label %119, label %122

119:                                              ; preds = %116
  %120 = getelementptr inbounds [256 x i8], [256 x i8]* %2, i64 0, i64 0
  %121 = call i32 (i8*, ...) @printf(i8* getelementptr inbounds ([3 x i8], [3 x i8]* @.str.1, i64 0, i64 0), i8* %120)
  br label %122

122:                                              ; preds = %119, %116
  ret i32 0
}

declare dso_local i32 @__isoc99_scanf(i8*, ...) #1

; Function Attrs: nounwind readonly
declare dso_local i64 @strlen(i8*) #2

declare dso_local i32 @printf(i8*, ...) #1


!llvm.module.flags = !{!0}
!llvm.ident = !{!1}

!0 = !{i32 1, !"wchar_size", i32 4}
!1 = !{!"clang version 10.0.0-4ubuntu1 "}
