; ModuleID = 'source-C-CXX/6/861.c'
source_filename = "source-C-CXX/6/861.c"
target datalayout = "e-m:e-p270:32:32-p271:32:32-p272:64:64-i64:64-f80:128-n8:16:32:64-S128"
target triple = "x86_64-pc-linux-gnu"

@.str = private unnamed_addr constant [7 x i8] c"%s%s%s\00", align 1
@.str.1 = private unnamed_addr constant [3 x i8] c"%s\00", align 1

; Function Attrs: nofree nounwind sspstrong uwtable
define dso_local i32 @main() local_unnamed_addr #0 {
  %1 = alloca [256 x i8], align 16
  %2 = getelementptr inbounds [256 x i8], [256 x i8]* %1, i64 0, i64 0
  %3 = alloca [256 x i8], align 16
  %4 = alloca [256 x i8], align 16
  %5 = alloca [256 x i8], align 16
  %6 = getelementptr inbounds [256 x i8], [256 x i8]* %5, i64 0, i64 0
  %7 = alloca [256 x i8], align 16
  %8 = getelementptr inbounds [256 x i8], [256 x i8]* %1, i64 0, i64 0
  call void @llvm.lifetime.start.p0i8(i64 256, i8* nonnull %8) #5
  %9 = getelementptr inbounds [256 x i8], [256 x i8]* %3, i64 0, i64 0
  call void @llvm.lifetime.start.p0i8(i64 256, i8* nonnull %9) #5
  %10 = getelementptr inbounds [256 x i8], [256 x i8]* %4, i64 0, i64 0
  call void @llvm.lifetime.start.p0i8(i64 256, i8* nonnull %10) #5
  %11 = getelementptr inbounds [256 x i8], [256 x i8]* %5, i64 0, i64 0
  call void @llvm.lifetime.start.p0i8(i64 256, i8* nonnull %11) #5
  %12 = getelementptr inbounds [256 x i8], [256 x i8]* %7, i64 0, i64 0
  call void @llvm.lifetime.start.p0i8(i64 256, i8* nonnull %12) #5
  %13 = call i32 (i8*, ...) @__isoc99_scanf(i8* getelementptr inbounds ([7 x i8], [7 x i8]* @.str, i64 0, i64 0), i8* nonnull %8, i8* nonnull %9, i8* nonnull %10)
  %14 = call i64 @strlen(i8* noundef nonnull %8) #6
  %15 = trunc i64 %14 to i32
  %16 = call i64 @strlen(i8* noundef nonnull %9) #6
  %17 = trunc i64 %16 to i32
  %18 = icmp sgt i32 %15, 0
  br i1 %18, label %19, label %296

19:                                               ; preds = %0
  %20 = shl i64 %14, 32
  %21 = ashr exact i64 %20, 32
  %22 = and i64 %14, 4294967295
  %23 = shl i64 %16, 32
  %24 = ashr exact i64 %23, 32
  %25 = icmp sgt i64 %23, 0
  br i1 %25, label %31, label %105

26:                                               ; preds = %292
  %27 = trunc i64 %293 to i32
  %28 = add i32 %27, %17
  %29 = sext i32 %28 to i64
  %30 = icmp slt i64 %293, %29
  br i1 %30, label %31, label %105, !llvm.loop !5

31:                                               ; preds = %19, %26
  %32 = phi i64 [ %29, %26 ], [ %24, %19 ]
  %33 = phi i32 [ %28, %26 ], [ %17, %19 ]
  %34 = phi i1 [ %294, %26 ], [ true, %19 ]
  %35 = phi i64 [ %293, %26 ], [ 0, %19 ]
  %36 = add i64 %16, %35
  %37 = and i64 %36, 4294967295
  %38 = sub nsw i64 %37, %35
  %39 = xor i64 %35, -1
  %40 = add nsw i64 %37, %39
  %41 = and i64 %38, 3
  %42 = icmp ult i64 %40, 3
  br i1 %42, label %83, label %43

43:                                               ; preds = %31
  %44 = and i64 %38, -4
  br label %45

45:                                               ; preds = %45, %43
  %46 = phi i64 [ %35, %43 ], [ %80, %45 ]
  %47 = phi i32 [ 0, %43 ], [ %79, %45 ]
  %48 = phi i64 [ %44, %43 ], [ %81, %45 ]
  %49 = sub nuw nsw i64 %46, %35
  %50 = getelementptr inbounds [256 x i8], [256 x i8]* %3, i64 0, i64 %49
  %51 = load i8, i8* %50, align 1, !tbaa !7
  %52 = getelementptr inbounds [256 x i8], [256 x i8]* %1, i64 0, i64 %46
  %53 = load i8, i8* %52, align 1, !tbaa !7
  %54 = icmp eq i8 %51, %53
  %55 = add nuw nsw i64 %46, 1
  %56 = sub nuw nsw i64 %55, %35
  %57 = getelementptr inbounds [256 x i8], [256 x i8]* %3, i64 0, i64 %56
  %58 = load i8, i8* %57, align 1, !tbaa !7
  %59 = getelementptr inbounds [256 x i8], [256 x i8]* %1, i64 0, i64 %55
  %60 = load i8, i8* %59, align 1, !tbaa !7
  %61 = icmp eq i8 %58, %60
  %62 = add nuw nsw i64 %46, 2
  %63 = sub nuw nsw i64 %62, %35
  %64 = getelementptr inbounds [256 x i8], [256 x i8]* %3, i64 0, i64 %63
  %65 = load i8, i8* %64, align 1, !tbaa !7
  %66 = getelementptr inbounds [256 x i8], [256 x i8]* %1, i64 0, i64 %62
  %67 = load i8, i8* %66, align 1, !tbaa !7
  %68 = icmp eq i8 %65, %67
  %69 = add nuw nsw i64 %46, 3
  %70 = sub nuw nsw i64 %69, %35
  %71 = getelementptr inbounds [256 x i8], [256 x i8]* %3, i64 0, i64 %70
  %72 = load i8, i8* %71, align 1, !tbaa !7
  %73 = getelementptr inbounds [256 x i8], [256 x i8]* %1, i64 0, i64 %69
  %74 = load i8, i8* %73, align 1, !tbaa !7
  %75 = icmp eq i8 %72, %74
  %76 = select i1 %75, i1 %68, i1 false
  %77 = select i1 %76, i1 %61, i1 false
  %78 = select i1 %77, i1 %54, i1 false
  %79 = select i1 %78, i32 %47, i32 1
  %80 = add nuw nsw i64 %46, 4
  %81 = add i64 %48, -4
  %82 = icmp eq i64 %81, 0
  br i1 %82, label %83, label %45, !llvm.loop !10

83:                                               ; preds = %45, %31
  %84 = phi i32 [ undef, %31 ], [ %79, %45 ]
  %85 = phi i64 [ %35, %31 ], [ %80, %45 ]
  %86 = phi i32 [ 0, %31 ], [ %79, %45 ]
  %87 = icmp eq i64 %41, 0
  br i1 %87, label %102, label %88

88:                                               ; preds = %83, %88
  %89 = phi i64 [ %99, %88 ], [ %85, %83 ]
  %90 = phi i32 [ %98, %88 ], [ %86, %83 ]
  %91 = phi i64 [ %100, %88 ], [ %41, %83 ]
  %92 = sub nuw nsw i64 %89, %35
  %93 = getelementptr inbounds [256 x i8], [256 x i8]* %3, i64 0, i64 %92
  %94 = load i8, i8* %93, align 1, !tbaa !7
  %95 = getelementptr inbounds [256 x i8], [256 x i8]* %1, i64 0, i64 %89
  %96 = load i8, i8* %95, align 1, !tbaa !7
  %97 = icmp eq i8 %94, %96
  %98 = select i1 %97, i32 %90, i32 1
  %99 = add nuw nsw i64 %89, 1
  %100 = add i64 %91, -1
  %101 = icmp eq i64 %100, 0
  br i1 %101, label %102, label %88, !llvm.loop !11

102:                                              ; preds = %88, %83
  %103 = phi i32 [ %84, %83 ], [ %98, %88 ]
  %104 = icmp eq i32 %103, 0
  br i1 %104, label %105, label %292

105:                                              ; preds = %102, %26, %19
  %106 = phi i64 [ 0, %19 ], [ %35, %102 ], [ %293, %26 ]
  %107 = phi i1 [ true, %19 ], [ %34, %102 ], [ %294, %26 ]
  %108 = phi i32 [ %17, %19 ], [ %33, %102 ], [ %28, %26 ]
  %109 = phi i64 [ %24, %19 ], [ %32, %102 ], [ %29, %26 ]
  %110 = trunc i64 %106 to i32
  %111 = icmp eq i32 %110, 0
  br i1 %111, label %114, label %112

112:                                              ; preds = %105
  call void @llvm.memcpy.p0i8.p0i8.i64(i8* nonnull align 16 %6, i8* nonnull align 16 %2, i64 %106, i1 false)
  %113 = and i64 %106, 4294967295
  br label %114

114:                                              ; preds = %112, %105
  %115 = phi i64 [ 0, %105 ], [ %113, %112 ]
  %116 = getelementptr inbounds [256 x i8], [256 x i8]* %5, i64 0, i64 %115
  store i8 0, i8* %116, align 1, !tbaa !7
  %117 = icmp slt i32 %108, %15
  br i1 %117, label %118, label %286

118:                                              ; preds = %114
  %119 = shl i64 %14, 32
  %120 = ashr exact i64 %119, 32
  %121 = sub nsw i64 %120, %109
  %122 = icmp ult i64 %121, 8
  br i1 %122, label %231, label %123

123:                                              ; preds = %118
  %124 = shl i64 %14, 32
  %125 = ashr exact i64 %124, 32
  %126 = xor i64 %109, -1
  %127 = add nsw i64 %125, %126
  %128 = trunc i64 %109 to i32
  %129 = sub i32 %128, %108
  %130 = trunc i64 %127 to i32
  %131 = add i32 %129, %130
  %132 = icmp slt i32 %131, %129
  %133 = icmp ugt i64 %127, 4294967295
  %134 = or i1 %132, %133
  br i1 %134, label %231, label %135

135:                                              ; preds = %123
  %136 = icmp ult i64 %121, 32
  br i1 %136, label %208, label %137

137:                                              ; preds = %135
  %138 = and i64 %121, -32
  %139 = add nsw i64 %138, -32
  %140 = lshr exact i64 %139, 5
  %141 = add nuw nsw i64 %140, 1
  %142 = and i64 %141, 1
  %143 = icmp eq i64 %139, 0
  br i1 %143, label %183, label %144

144:                                              ; preds = %137
  %145 = and i64 %141, 1152921504606846974
  br label %146

146:                                              ; preds = %146, %144
  %147 = phi i64 [ 0, %144 ], [ %180, %146 ]
  %148 = phi i64 [ %145, %144 ], [ %181, %146 ]
  %149 = add i64 %109, %147
  %150 = getelementptr inbounds [256 x i8], [256 x i8]* %1, i64 0, i64 %149
  %151 = bitcast i8* %150 to <16 x i8>*
  %152 = load <16 x i8>, <16 x i8>* %151, align 1, !tbaa !7
  %153 = getelementptr inbounds i8, i8* %150, i64 16
  %154 = bitcast i8* %153 to <16 x i8>*
  %155 = load <16 x i8>, <16 x i8>* %154, align 1, !tbaa !7
  %156 = add i64 %109, %147
  %157 = trunc i64 %156 to i32
  %158 = sub i32 %157, %108
  %159 = sext i32 %158 to i64
  %160 = getelementptr inbounds [256 x i8], [256 x i8]* %7, i64 0, i64 %159
  %161 = bitcast i8* %160 to <16 x i8>*
  store <16 x i8> %152, <16 x i8>* %161, align 1, !tbaa !7
  %162 = getelementptr inbounds i8, i8* %160, i64 16
  %163 = bitcast i8* %162 to <16 x i8>*
  store <16 x i8> %155, <16 x i8>* %163, align 1, !tbaa !7
  %164 = or i64 %147, 32
  %165 = add i64 %109, %164
  %166 = getelementptr inbounds [256 x i8], [256 x i8]* %1, i64 0, i64 %165
  %167 = bitcast i8* %166 to <16 x i8>*
  %168 = load <16 x i8>, <16 x i8>* %167, align 1, !tbaa !7
  %169 = getelementptr inbounds i8, i8* %166, i64 16
  %170 = bitcast i8* %169 to <16 x i8>*
  %171 = load <16 x i8>, <16 x i8>* %170, align 1, !tbaa !7
  %172 = add i64 %109, %164
  %173 = trunc i64 %172 to i32
  %174 = sub i32 %173, %108
  %175 = sext i32 %174 to i64
  %176 = getelementptr inbounds [256 x i8], [256 x i8]* %7, i64 0, i64 %175
  %177 = bitcast i8* %176 to <16 x i8>*
  store <16 x i8> %168, <16 x i8>* %177, align 1, !tbaa !7
  %178 = getelementptr inbounds i8, i8* %176, i64 16
  %179 = bitcast i8* %178 to <16 x i8>*
  store <16 x i8> %171, <16 x i8>* %179, align 1, !tbaa !7
  %180 = add nuw i64 %147, 64
  %181 = add i64 %148, -2
  %182 = icmp eq i64 %181, 0
  br i1 %182, label %183, label %146, !llvm.loop !13

183:                                              ; preds = %146, %137
  %184 = phi i64 [ 0, %137 ], [ %180, %146 ]
  %185 = icmp eq i64 %142, 0
  br i1 %185, label %202, label %186

186:                                              ; preds = %183
  %187 = add i64 %109, %184
  %188 = getelementptr inbounds [256 x i8], [256 x i8]* %1, i64 0, i64 %187
  %189 = bitcast i8* %188 to <16 x i8>*
  %190 = load <16 x i8>, <16 x i8>* %189, align 1, !tbaa !7
  %191 = getelementptr inbounds i8, i8* %188, i64 16
  %192 = bitcast i8* %191 to <16 x i8>*
  %193 = load <16 x i8>, <16 x i8>* %192, align 1, !tbaa !7
  %194 = add i64 %109, %184
  %195 = trunc i64 %194 to i32
  %196 = sub i32 %195, %108
  %197 = sext i32 %196 to i64
  %198 = getelementptr inbounds [256 x i8], [256 x i8]* %7, i64 0, i64 %197
  %199 = bitcast i8* %198 to <16 x i8>*
  store <16 x i8> %190, <16 x i8>* %199, align 1, !tbaa !7
  %200 = getelementptr inbounds i8, i8* %198, i64 16
  %201 = bitcast i8* %200 to <16 x i8>*
  store <16 x i8> %193, <16 x i8>* %201, align 1, !tbaa !7
  br label %202

202:                                              ; preds = %183, %186
  %203 = icmp eq i64 %121, %138
  br i1 %203, label %286, label %204

204:                                              ; preds = %202
  %205 = add nsw i64 %109, %138
  %206 = and i64 %121, 24
  %207 = icmp eq i64 %206, 0
  br i1 %207, label %231, label %208

208:                                              ; preds = %135, %204
  %209 = phi i64 [ %138, %204 ], [ 0, %135 ]
  %210 = shl i64 %14, 32
  %211 = ashr exact i64 %210, 32
  %212 = sub nsw i64 %211, %109
  %213 = and i64 %212, -8
  %214 = add nsw i64 %109, %213
  br label %215

215:                                              ; preds = %215, %208
  %216 = phi i64 [ %209, %208 ], [ %227, %215 ]
  %217 = add i64 %109, %216
  %218 = getelementptr inbounds [256 x i8], [256 x i8]* %1, i64 0, i64 %217
  %219 = bitcast i8* %218 to <8 x i8>*
  %220 = load <8 x i8>, <8 x i8>* %219, align 1, !tbaa !7
  %221 = add i64 %109, %216
  %222 = trunc i64 %221 to i32
  %223 = sub i32 %222, %108
  %224 = sext i32 %223 to i64
  %225 = getelementptr inbounds [256 x i8], [256 x i8]* %7, i64 0, i64 %224
  %226 = bitcast i8* %225 to <8 x i8>*
  store <8 x i8> %220, <8 x i8>* %226, align 1, !tbaa !7
  %227 = add nuw i64 %216, 8
  %228 = icmp eq i64 %227, %213
  br i1 %228, label %229, label %215, !llvm.loop !15

229:                                              ; preds = %215
  %230 = icmp eq i64 %212, %213
  br i1 %230, label %286, label %231

231:                                              ; preds = %123, %118, %204, %229
  %232 = phi i64 [ %109, %118 ], [ %109, %123 ], [ %205, %204 ], [ %214, %229 ]
  %233 = shl i64 %14, 32
  %234 = ashr exact i64 %233, 32
  %235 = sub i64 %14, %232
  %236 = xor i64 %232, -1
  %237 = add i64 %234, %236
  %238 = and i64 %235, 3
  %239 = icmp eq i64 %238, 0
  br i1 %239, label %252, label %240

240:                                              ; preds = %231, %240
  %241 = phi i64 [ %249, %240 ], [ %232, %231 ]
  %242 = phi i64 [ %250, %240 ], [ %238, %231 ]
  %243 = getelementptr inbounds [256 x i8], [256 x i8]* %1, i64 0, i64 %241
  %244 = load i8, i8* %243, align 1, !tbaa !7
  %245 = trunc i64 %241 to i32
  %246 = sub i32 %245, %108
  %247 = sext i32 %246 to i64
  %248 = getelementptr inbounds [256 x i8], [256 x i8]* %7, i64 0, i64 %247
  store i8 %244, i8* %248, align 1, !tbaa !7
  %249 = add nsw i64 %241, 1
  %250 = add i64 %242, -1
  %251 = icmp eq i64 %250, 0
  br i1 %251, label %252, label %240, !llvm.loop !16

252:                                              ; preds = %240, %231
  %253 = phi i64 [ %232, %231 ], [ %249, %240 ]
  %254 = icmp ult i64 %237, 3
  br i1 %254, label %286, label %255

255:                                              ; preds = %252, %255
  %256 = phi i64 [ %284, %255 ], [ %253, %252 ]
  %257 = getelementptr inbounds [256 x i8], [256 x i8]* %1, i64 0, i64 %256
  %258 = load i8, i8* %257, align 1, !tbaa !7
  %259 = trunc i64 %256 to i32
  %260 = sub i32 %259, %108
  %261 = sext i32 %260 to i64
  %262 = getelementptr inbounds [256 x i8], [256 x i8]* %7, i64 0, i64 %261
  store i8 %258, i8* %262, align 1, !tbaa !7
  %263 = add nsw i64 %256, 1
  %264 = getelementptr inbounds [256 x i8], [256 x i8]* %1, i64 0, i64 %263
  %265 = load i8, i8* %264, align 1, !tbaa !7
  %266 = trunc i64 %263 to i32
  %267 = sub i32 %266, %108
  %268 = sext i32 %267 to i64
  %269 = getelementptr inbounds [256 x i8], [256 x i8]* %7, i64 0, i64 %268
  store i8 %265, i8* %269, align 1, !tbaa !7
  %270 = add nsw i64 %256, 2
  %271 = getelementptr inbounds [256 x i8], [256 x i8]* %1, i64 0, i64 %270
  %272 = load i8, i8* %271, align 1, !tbaa !7
  %273 = trunc i64 %270 to i32
  %274 = sub i32 %273, %108
  %275 = sext i32 %274 to i64
  %276 = getelementptr inbounds [256 x i8], [256 x i8]* %7, i64 0, i64 %275
  store i8 %272, i8* %276, align 1, !tbaa !7
  %277 = add nsw i64 %256, 3
  %278 = getelementptr inbounds [256 x i8], [256 x i8]* %1, i64 0, i64 %277
  %279 = load i8, i8* %278, align 1, !tbaa !7
  %280 = trunc i64 %277 to i32
  %281 = sub i32 %280, %108
  %282 = sext i32 %281 to i64
  %283 = getelementptr inbounds [256 x i8], [256 x i8]* %7, i64 0, i64 %282
  store i8 %279, i8* %283, align 1, !tbaa !7
  %284 = add nsw i64 %256, 4
  %285 = icmp eq i64 %284, %21
  br i1 %285, label %286, label %255, !llvm.loop !17

286:                                              ; preds = %252, %255, %202, %229, %114
  %287 = phi i32 [ %108, %114 ], [ %15, %229 ], [ %15, %202 ], [ %15, %255 ], [ %15, %252 ]
  %288 = sub i32 %287, %108
  %289 = sext i32 %288 to i64
  %290 = getelementptr inbounds [256 x i8], [256 x i8]* %7, i64 0, i64 %289
  store i8 0, i8* %290, align 1, !tbaa !7
  %291 = call i32 (i8*, ...) @printf(i8* nonnull dereferenceable(1) getelementptr inbounds ([7 x i8], [7 x i8]* @.str, i64 0, i64 0), i8* nonnull %11, i8* nonnull %10, i8* nonnull %12)
  br i1 %107, label %298, label %296

292:                                              ; preds = %102
  %293 = add nuw nsw i64 %35, 1
  %294 = icmp slt i64 %293, %21
  %295 = icmp eq i64 %293, %22
  br i1 %295, label %296, label %26, !llvm.loop !5

296:                                              ; preds = %292, %0, %286
  %297 = call i32 (i8*, ...) @printf(i8* nonnull dereferenceable(1) getelementptr inbounds ([3 x i8], [3 x i8]* @.str.1, i64 0, i64 0), i8* nonnull %8)
  br label %298

298:                                              ; preds = %296, %286
  call void @llvm.lifetime.end.p0i8(i64 256, i8* nonnull %12) #5
  call void @llvm.lifetime.end.p0i8(i64 256, i8* nonnull %11) #5
  call void @llvm.lifetime.end.p0i8(i64 256, i8* nonnull %10) #5
  call void @llvm.lifetime.end.p0i8(i64 256, i8* nonnull %9) #5
  call void @llvm.lifetime.end.p0i8(i64 256, i8* nonnull %8) #5
  ret i32 0
}

; Function Attrs: argmemonly mustprogress nofree nosync nounwind willreturn
declare void @llvm.lifetime.start.p0i8(i64 immarg, i8* nocapture) #1

; Function Attrs: nofree nounwind
declare noundef i32 @__isoc99_scanf(i8* nocapture noundef readonly, ...) local_unnamed_addr #2

; Function Attrs: argmemonly mustprogress nofree nounwind readonly willreturn
declare i64 @strlen(i8* nocapture) local_unnamed_addr #3

; Function Attrs: nofree nounwind
declare noundef i32 @printf(i8* nocapture noundef readonly, ...) local_unnamed_addr #2

; Function Attrs: argmemonly mustprogress nofree nosync nounwind willreturn
declare void @llvm.lifetime.end.p0i8(i64 immarg, i8* nocapture) #1

; Function Attrs: argmemonly nofree nounwind willreturn
declare void @llvm.memcpy.p0i8.p0i8.i64(i8* noalias nocapture writeonly, i8* noalias nocapture readonly, i64, i1 immarg) #4


!llvm.module.flags = !{!0, !1, !2, !3}
!llvm.ident = !{!4}

!0 = !{i32 1, !"wchar_size", i32 4}
!1 = !{i32 7, !"PIC Level", i32 2}
!2 = !{i32 7, !"PIE Level", i32 2}
!3 = !{i32 7, !"uwtable", i32 1}
!4 = !{!"clang version 13.0.0"}
!5 = distinct !{!5, !6}
!6 = !{!"llvm.loop.mustprogress"}
!7 = !{!8, !8, i64 0}
!8 = !{!"omnipotent char", !9, i64 0}
!9 = !{!"Simple C/C++ TBAA"}
!10 = distinct !{!10, !6}
!11 = distinct !{!11, !12}
!12 = !{!"llvm.loop.unroll.disable"}
!13 = distinct !{!13, !6, !14}
!14 = !{!"llvm.loop.isvectorized", i32 1}
!15 = distinct !{!15, !6, !14}
!16 = distinct !{!16, !12}
!17 = distinct !{!17, !6, !14}
